target datalayout = "e-m:e-p270:32:32-p271:32:32-p272:64:64-i64:64-i128:128-f80:128-n8:16:32:64-S128"
target triple = "x86_64-pc-linux-gnu"

%struct.SDL_HIDAPI_Device = type { ptr, ptr, ptr, ptr, i16, i16, i16, ptr, %struct.SDL_GUID, i32, i32, i32, i32, i16, i16, i8, i32, i32, i32, ptr, ptr, ptr, ptr, %struct.SDL_AtomicInt, i32, ptr, i8, i8, i8, ptr, i32, ptr, ptr }
%struct.SDL_GUID = type { [16 x i8] }
%struct.SDL_AtomicInt = type { i32 }
%struct.SDL_DriverPS4_Context = type { ptr, ptr, i8, i8, i8, i8, i8, i8, i8, i8, i32, i8, i8, i8, i8, i8, i8, i8, i8, [6 x %struct.IMUCalibrationData], i64, i32, i8, i8, i8, i8, i8, i8, i16, i16, i16, i16, i64, i16, i16, %struct.PS4StatePacket_t }
%struct.IMUCalibrationData = type { i16, float }
%struct.PS4StatePacket_t = type { i8, i8, i8, i8, [3 x i8], i8, i8, [2 x i8], [1 x i8], [2 x i8], [2 x i8], [2 x i8], [2 x i8], [2 x i8], [2 x i8], [5 x i8], i8, [4 x i8], i8, [3 x i8], i8, [3 x i8] }

@.str.4 = private unnamed_addr constant [32 x i8] c"That operation is not supported\00", align 1
@.str.5 = private unnamed_addr constant [28 x i8] c"Couldn't send rumble packet\00", align 1

; Function Attrs: nounwind uwtable
define internal void @HIDAPI_DriverPS4_UpdateEnhancedModeOnApplicationUsage(ptr noundef %0) #0 {
  %2 = alloca ptr, align 8
  store ptr %0, ptr %2, align 8
  %3 = load ptr, ptr %2, align 8
  %4 = getelementptr inbounds nuw %struct.SDL_DriverPS4_Context, ptr %3, i32 0, i32 10
  %5 = load i32, ptr %4, align 8
  %6 = icmp eq i32 %5, 2
  br i1 %6, label %7, label %9

7:                                                ; preds = %1
  %8 = load ptr, ptr %2, align 8
  call void @HIDAPI_DriverPS4_SetEnhancedReportHint(ptr noundef %8, i32 noundef 1)
  br label %9

9:                                                ; preds = %7, %1
  ret void
}

; Function Attrs: nounwind uwtable
define internal zeroext i1 @HIDAPI_DriverPS4_InternalSendJoystickEffect(ptr noundef %0, ptr noundef %1, i32 noundef %2, i1 noundef zeroext %3) #0 {
  %5 = alloca i1, align 1
  %6 = alloca ptr, align 8
  %7 = alloca ptr, align 8
  %8 = alloca i32, align 4
  %9 = alloca i8, align 1
  %10 = alloca [78 x i8], align 16
  %11 = alloca i32, align 4
  %12 = alloca i32, align 4
  %13 = alloca i32, align 4
  %14 = alloca i8, align 1
  %15 = alloca i32, align 4
  store ptr %0, ptr %6, align 8
  store ptr %1, ptr %7, align 8
  store i32 %2, ptr %8, align 4
  %16 = zext i1 %3 to i8
  store i8 %16, ptr %9, align 1
  call void @llvm.lifetime.start.p0(i64 78, ptr %10) #6
  call void @llvm.lifetime.start.p0(i64 4, ptr %11) #6
  call void @llvm.lifetime.start.p0(i64 4, ptr %12) #6
  %17 = load ptr, ptr %6, align 8
  %18 = getelementptr inbounds nuw %struct.SDL_DriverPS4_Context, ptr %17, i32 0, i32 9
  %19 = load i8, ptr %18, align 1, !range !5, !noundef !6
  %20 = trunc i8 %19 to i1
  br i1 %20, label %23, label %21

21:                                               ; preds = %4
  %22 = call zeroext i1 (ptr, ...) @SDL_SetError_REAL(ptr noundef @.str.4)
  store i1 %22, ptr %5, align 1
  store i32 1, ptr %13, align 4
  br label %117

23:                                               ; preds = %4
  %24 = load ptr, ptr %6, align 8
  %25 = getelementptr inbounds nuw %struct.SDL_DriverPS4_Context, ptr %24, i32 0, i32 12
  %26 = load i8, ptr %25, align 1, !range !5, !noundef !6
  %27 = trunc i8 %26 to i1
  br i1 %27, label %41, label %28

28:                                               ; preds = %23
  %29 = load i8, ptr %9, align 1, !range !5, !noundef !6
  %30 = trunc i8 %29 to i1
  br i1 %30, label %31, label %33

31:                                               ; preds = %28
  %32 = load ptr, ptr %6, align 8
  call void @HIDAPI_DriverPS4_UpdateEnhancedModeOnApplicationUsage(ptr noundef %32)
  br label %33

33:                                               ; preds = %31, %28
  %34 = load ptr, ptr %6, align 8
  %35 = getelementptr inbounds nuw %struct.SDL_DriverPS4_Context, ptr %34, i32 0, i32 12
  %36 = load i8, ptr %35, align 1, !range !5, !noundef !6
  %37 = trunc i8 %36 to i1
  br i1 %37, label %40, label %38

38:                                               ; preds = %33
  %39 = call zeroext i1 (ptr, ...) @SDL_SetError_REAL(ptr noundef @.str.4)
  store i1 %39, ptr %5, align 1
  store i32 1, ptr %13, align 4
  br label %117

40:                                               ; preds = %33
  br label %41

41:                                               ; preds = %40, %23
  %42 = getelementptr inbounds [78 x i8], ptr %10, i64 0, i64 0
  call void @llvm.memset.p0.i64(ptr align 16 %42, i8 0, i64 78, i1 false)
  %43 = load ptr, ptr %6, align 8
  %44 = getelementptr inbounds nuw %struct.SDL_DriverPS4_Context, ptr %43, i32 0, i32 0
  %45 = load ptr, ptr %44, align 8
  %46 = getelementptr inbounds nuw %struct.SDL_HIDAPI_Device, ptr %45, i32 0, i32 15
  %47 = load i8, ptr %46, align 4, !range !5, !noundef !6
  %48 = trunc i8 %47 to i1
  br i1 %48, label %49, label %64

49:                                               ; preds = %41
  %50 = load ptr, ptr %6, align 8
  %51 = getelementptr inbounds nuw %struct.SDL_DriverPS4_Context, ptr %50, i32 0, i32 4
  %52 = load i8, ptr %51, align 2, !range !5, !noundef !6
  %53 = trunc i8 %52 to i1
  br i1 %53, label %54, label %64

54:                                               ; preds = %49
  %55 = getelementptr inbounds [78 x i8], ptr %10, i64 0, i64 0
  store i8 17, ptr %55, align 16
  %56 = load ptr, ptr %6, align 8
  %57 = getelementptr inbounds nuw %struct.SDL_DriverPS4_Context, ptr %56, i32 0, i32 14
  %58 = load i8, ptr %57, align 1
  %59 = zext i8 %58 to i32
  %60 = or i32 192, %59
  %61 = trunc i32 %60 to i8
  %62 = getelementptr inbounds [78 x i8], ptr %10, i64 0, i64 1
  store i8 %61, ptr %62, align 1
  %63 = getelementptr inbounds [78 x i8], ptr %10, i64 0, i64 3
  store i8 3, ptr %63, align 1
  store i32 78, ptr %11, align 4
  store i32 6, ptr %12, align 4
  br label %67

64:                                               ; preds = %49, %41
  %65 = getelementptr inbounds [78 x i8], ptr %10, i64 0, i64 0
  store i8 5, ptr %65, align 16
  %66 = getelementptr inbounds [78 x i8], ptr %10, i64 0, i64 1
  store i8 7, ptr %66, align 1
  store i32 32, ptr %11, align 4
  store i32 4, ptr %12, align 4
  br label %67

67:                                               ; preds = %64, %54
  %68 = load i32, ptr %12, align 4
  %69 = sext i32 %68 to i64
  %70 = getelementptr inbounds [78 x i8], ptr %10, i64 0, i64 %69
  %71 = load ptr, ptr %7, align 8
  %72 = load i32, ptr %12, align 4
  %73 = sext i32 %72 to i64
  %74 = sub i64 78, %73
  %75 = load i32, ptr %8, align 4
  %76 = sext i32 %75 to i64
  %77 = icmp ult i64 %74, %76
  br i1 %77, label %78, label %82

78:                                               ; preds = %67
  %79 = load i32, ptr %12, align 4
  %80 = sext i32 %79 to i64
  %81 = sub i64 78, %80
  br label %85

82:                                               ; preds = %67
  %83 = load i32, ptr %8, align 4
  %84 = sext i32 %83 to i64
  br label %85

85:                                               ; preds = %82, %78
  %86 = phi i64 [ %81, %78 ], [ %84, %82 ]
  call void @llvm.memcpy.p0.p0.i64(ptr align 1 %70, ptr align 1 %71, i64 %86, i1 false)
  %87 = load ptr, ptr %6, align 8
  %88 = getelementptr inbounds nuw %struct.SDL_DriverPS4_Context, ptr %87, i32 0, i32 0
  %89 = load ptr, ptr %88, align 8
  %90 = getelementptr inbounds nuw %struct.SDL_HIDAPI_Device, ptr %89, i32 0, i32 15
  %91 = load i8, ptr %90, align 4, !range !5, !noundef !6
  %92 = trunc i8 %91 to i1
  br i1 %92, label %93, label %105

93:                                               ; preds = %85
  call void @llvm.lifetime.start.p0(i64 1, ptr %14) #6
  store i8 -94, ptr %14, align 1
  call void @llvm.lifetime.start.p0(i64 4, ptr %15) #6
  %94 = call i32 @SDL_crc32_REAL(i32 noundef 0, ptr noundef %14, i64 noundef 1)
  store i32 %94, ptr %15, align 4
  %95 = load i32, ptr %15, align 4
  %96 = getelementptr inbounds [78 x i8], ptr %10, i64 0, i64 0
  %97 = load i32, ptr %11, align 4
  %98 = sext i32 %97 to i64
  %99 = sub i64 %98, 4
  %100 = call i32 @SDL_crc32_REAL(i32 noundef %95, ptr noundef %96, i64 noundef %99)
  store i32 %100, ptr %15, align 4
  %101 = load i32, ptr %11, align 4
  %102 = sext i32 %101 to i64
  %103 = sub i64 %102, 4
  %104 = getelementptr inbounds nuw [78 x i8], ptr %10, i64 0, i64 %103
  call void @llvm.memcpy.p0.p0.i64(ptr align 1 %104, ptr align 4 %15, i64 4, i1 false)
  call void @llvm.lifetime.end.p0(i64 4, ptr %15) #6
  call void @llvm.lifetime.end.p0(i64 1, ptr %14) #6
  br label %105

105:                                              ; preds = %93, %85
  %106 = load ptr, ptr %6, align 8
  %107 = getelementptr inbounds nuw %struct.SDL_DriverPS4_Context, ptr %106, i32 0, i32 0
  %108 = load ptr, ptr %107, align 8
  %109 = getelementptr inbounds [78 x i8], ptr %10, i64 0, i64 0
  %110 = load i32, ptr %11, align 4
  %111 = call i32 @SDL_HIDAPI_SendRumble(ptr noundef %108, ptr noundef %109, i32 noundef %110)
  %112 = load i32, ptr %11, align 4
  %113 = icmp ne i32 %111, %112
  br i1 %113, label %114, label %116

114:                                              ; preds = %105
  %115 = call zeroext i1 (ptr, ...) @SDL_SetError_REAL(ptr noundef @.str.5)
  store i1 %115, ptr %5, align 1
  store i32 1, ptr %13, align 4
  br label %117

116:                                              ; preds = %105
  store i1 true, ptr %5, align 1
  store i32 1, ptr %13, align 4
  br label %117

117:                                              ; preds = %116, %114, %38, %21
  call void @llvm.lifetime.end.p0(i64 4, ptr %12) #6
  call void @llvm.lifetime.end.p0(i64 4, ptr %11) #6
  call void @llvm.lifetime.end.p0(i64 78, ptr %10) #6
  %118 = load i1, ptr %5, align 1
  ret i1 %118
}