; Function Attrs: nounwind uwtable
define internal fastcc zeroext i1 @HIDAPI_DriverPS4_InternalSendJoystickEffect(ptr noundef captures(none) %0, ptr noundef readonly captures(none) %1, i32 noundef %2, i1 noundef zeroext %3) unnamed_addr #0 {
  %5 = alloca [78 x i8], align 16
  %6 = alloca i8, align 1
  call void @llvm.lifetime.start.p0(i64 78, ptr nonnull %5) #9
  %7 = getelementptr inbounds nuw i8, ptr %0, i64 23
  %8 = load i8, ptr %7, align 1, !range !5, !noundef !6
  %9 = trunc nuw i8 %8 to i1
  %.021.sroa.gep = getelementptr inbounds nuw i8, ptr %5, i64 6
  %.021.sroa.gep23 = getelementptr inbounds nuw i8, ptr %5, i64 4
  br i1 %9, label %12, label %10

10:                                               ; preds = %4
  %11 = tail call zeroext i1 (ptr, ...) @SDL_SetError_REAL(ptr noundef nonnull @.str.4) #9
  br label %56

12:                                               ; preds = %4
  %13 = getelementptr inbounds nuw i8, ptr %0, i64 29
  %14 = load i8, ptr %13, align 1, !range !5, !noundef !6
  %15 = trunc nuw i8 %14 to i1
  br i1 %15, label %23, label %16

16:                                               ; preds = %12
  br i1 %3, label %17, label %HIDAPI_DriverPS4_UpdateEnhancedModeOnApplicationUsage.exit.thread

17:                                               ; preds = %16
  %18 = getelementptr inbounds nuw i8, ptr %0, i64 24
  %19 = load i32, ptr %18, align 8
  %20 = icmp eq i32 %19, 2
  br i1 %20, label %HIDAPI_DriverPS4_UpdateEnhancedModeOnApplicationUsage.exit, label %HIDAPI_DriverPS4_UpdateEnhancedModeOnApplicationUsage.exit.thread

HIDAPI_DriverPS4_UpdateEnhancedModeOnApplicationUsage.exit: ; preds = %17
  tail call fastcc void @HIDAPI_DriverPS4_SetEnhancedReportHint(ptr noundef nonnull %0, i32 noundef 1)
  %.pre = load i8, ptr %13, align 1, !range !5
  %21 = trunc nuw i8 %.pre to i1
  br i1 %21, label %23, label %HIDAPI_DriverPS4_UpdateEnhancedModeOnApplicationUsage.exit.thread

HIDAPI_DriverPS4_UpdateEnhancedModeOnApplicationUsage.exit.thread: ; preds = %16, %17, %HIDAPI_DriverPS4_UpdateEnhancedModeOnApplicationUsage.exit
  %22 = tail call zeroext i1 (ptr, ...) @SDL_SetError_REAL(ptr noundef nonnull @.str.4) #9
  br label %56

23:                                               ; preds = %HIDAPI_DriverPS4_UpdateEnhancedModeOnApplicationUsage.exit, %12
  call void @llvm.memset.p0.i64(ptr noundef nonnull align 16 dereferenceable(78) %5, i8 0, i64 78, i1 false)
  %24 = load ptr, ptr %0, align 8
  %25 = getelementptr inbounds nuw i8, ptr %24, i64 84
  %26 = load i8, ptr %25, align 4, !range !5, !noundef !6
  %27 = trunc nuw i8 %26 to i1
  br i1 %27, label %28, label %.critedge

28:                                               ; preds = %23
  %29 = getelementptr inbounds nuw i8, ptr %0, i64 18
  %30 = load i8, ptr %29, align 2, !range !5, !noundef !6
  %31 = trunc nuw i8 %30 to i1
  br i1 %31, label %.thread, label %38

.thread:                                          ; preds = %28
  store i8 17, ptr %5, align 16
  %32 = getelementptr inbounds nuw i8, ptr %0, i64 31
  %33 = load i8, ptr %32, align 1
  %34 = or i8 %33, -64
  %35 = getelementptr inbounds nuw i8, ptr %5, i64 1
  store i8 %34, ptr %35, align 1
  %36 = getelementptr inbounds nuw i8, ptr %5, i64 3
  store i8 3, ptr %36, align 1
  %37 = tail call i32 @llvm.umin.i32(i32 %2, i32 72)
  br label %41

38:                                               ; preds = %28
  store i8 5, ptr %5, align 16
  %39 = getelementptr inbounds nuw i8, ptr %5, i64 1
  store i8 7, ptr %39, align 1
  %40 = tail call i32 @llvm.umin.i32(i32 %2, i32 74)
  br label %41

41:                                               ; preds = %38, %.thread
  %.sink30 = phi i32 [ %40, %38 ], [ %37, %.thread ]
  %.021.sroa.gep23.sink = phi ptr [ %.021.sroa.gep23, %38 ], [ %.021.sroa.gep, %.thread ]
  %.02229 = phi i32 [ 32, %38 ], [ 78, %.thread ]
  %42 = zext nneg i32 %.sink30 to i64
  call void @llvm.memcpy.p0.p0.i64(ptr nonnull align 2 %.021.sroa.gep23.sink, ptr align 1 %1, i64 %42, i1 false)
  call void @llvm.lifetime.start.p0(i64 1, ptr nonnull %6) #9
  store i8 -94, ptr %6, align 1
  %43 = call i32 @SDL_crc32_REAL(i32 noundef 0, ptr noundef nonnull %6, i64 noundef 1) #9
  %44 = zext nneg i32 %.02229 to i64
  %45 = add nsw i64 %44, -4
  %46 = call i32 @SDL_crc32_REAL(i32 noundef %43, ptr noundef nonnull %5, i64 noundef %45) #9
  %47 = getelementptr inbounds nuw [78 x i8], ptr %5, i64 0, i64 %45
  store i32 %46, ptr %47, align 2
  call void @llvm.lifetime.end.p0(i64 1, ptr nonnull %6) #9
  %.pre24 = load ptr, ptr %0, align 8
  br label %51

.critedge:                                        ; preds = %23
  store i8 5, ptr %5, align 16
  %48 = getelementptr inbounds nuw i8, ptr %5, i64 1
  store i8 7, ptr %48, align 1
  %49 = tail call i32 @llvm.umin.i32(i32 %2, i32 74)
  %50 = zext nneg i32 %49 to i64
  call void @llvm.memcpy.p0.p0.i64(ptr nonnull align 4 %.021.sroa.gep23, ptr align 1 %1, i64 %50, i1 false)
  br label %51

51:                                               ; preds = %.critedge, %41
  %.02228 = phi i32 [ %.02229, %41 ], [ 32, %.critedge ]
  %52 = phi ptr [ %.pre24, %41 ], [ %24, %.critedge ]
  %53 = call i32 @SDL_HIDAPI_SendRumble(ptr noundef %52, ptr noundef nonnull %5, i32 noundef %.02228) #9
  %.not = icmp eq i32 %53, %.02228
  br i1 %.not, label %56, label %54

54:                                               ; preds = %51
  %55 = call zeroext i1 (ptr, ...) @SDL_SetError_REAL(ptr noundef nonnull @.str.5) #9
  br label %56

56:                                               ; preds = %51, %54, %HIDAPI_DriverPS4_UpdateEnhancedModeOnApplicationUsage.exit.thread, %10
  %.0 = phi i1 [ %55, %54 ], [ %22, %HIDAPI_DriverPS4_UpdateEnhancedModeOnApplicationUsage.exit.thread ], [ %11, %10 ], [ true, %51 ]
  call void @llvm.lifetime.end.p0(i64 78, ptr nonnull %5) #9
  ret i1 %.0
}